target datalayout = "e-m:e-p270:32:32-p271:32:32-p272:64:64-i64:64-i128:128-f80:128-n8:16:32:64-S128"
target triple = "x86_64-unknown-linux-gnu"

@.str.11 = private unnamed_addr constant [26 x i8] c"<discarded-invalid-value>\00", align 1
@.str.15 = private unnamed_addr constant [5 x i8] c"POST\00", align 1
@.str.16 = private unnamed_addr constant [4 x i8] c"PUT\00", align 1
@.str.17 = private unnamed_addr constant [4 x i8] c"GET\00", align 1

; Function Attrs: mustprogress nounwind uwtable
define noundef ptr @_ZN9grpc_core18HttpMethodMetadata12DisplayValueENS0_9ValueTypeE(i8 noundef zeroext %content_type) #6 align 2 {
entry:
  %retval = alloca ptr, align 8
  %content_type.addr = alloca i8, align 1
  store i8 %content_type, ptr %content_type.addr, align 1
  %0 = load i8, ptr %content_type.addr, align 1
  %conv = zext i8 %0 to i32
  switch i32 %conv, label %sw.default [
    i32 0, label %sw.bb
    i32 1, label %sw.bb1
    i32 2, label %sw.bb2
  ]

sw.bb:                                            ; preds = %entry
  store ptr @.str.15, ptr %retval, align 8
  br label %return

sw.bb1:                                           ; preds = %entry
  store ptr @.str.17, ptr %retval, align 8
  br label %return

sw.bb2:                                           ; preds = %entry
  store ptr @.str.16, ptr %retval, align 8
  br label %return

sw.default:                                       ; preds = %entry
  store ptr @.str.11, ptr %retval, align 8
  br label %return

return:                                           ; preds = %sw.default, %sw.bb2, %sw.bb1, %sw.bb
  %1 = load ptr, ptr %retval, align 8
  ret ptr %1
}