; Function Attrs: mustprogress nofree norecurse nosync nounwind willreturn memory(none) uwtable
define noundef nonnull ptr @_ZN9grpc_core18HttpMethodMetadata12DisplayValueENS0_9ValueTypeE(i8 noundef zeroext %content_type) local_unnamed_addr #7 align 2 {
entry:
  %0 = icmp ult i8 %content_type, 3
  br i1 %0, label %switch.lookup, label %return

switch.lookup:                                    ; preds = %entry
  %1 = zext nneg i8 %content_type to i64
  %switch.gep = getelementptr inbounds [3 x ptr], ptr @switch.table._ZN9grpc_core18HttpMethodMetadata12DisplayValueENS0_9ValueTypeE, i64 0, i64 %1
  %switch.load = load ptr, ptr %switch.gep, align 8
  br label %return

return:                                           ; preds = %entry, %switch.lookup
  %retval.0 = phi ptr [ %switch.load, %switch.lookup ], [ @.str.11, %entry ]
  ret ptr %retval.0
}